target datalayout = "e-m:e-p270:32:32-p271:32:32-p272:64:64-i64:64-i128:128-f80:128-n8:16:32:64-S128"
target triple = "x86_64-pc-linux-gnu"

%struct.tm = type { i32, i32, i32, i32, i32, i32, i32, i32, i32, i64, ptr }

; Function Attrs: nounwind uwtable
define i32 @GetEpochTime(ptr noundef %0) #0 {
  %2 = alloca i32, align 4
  %3 = alloca ptr, align 8
  %4 = alloca ptr, align 8
  %5 = alloca %struct.tm, align 8
  %6 = alloca i64, align 8
  %7 = alloca i32, align 4
  store ptr %0, ptr %3, align 8
  call void @llvm.lifetime.start.p0(i64 8, ptr %4) #9
  call void @llvm.lifetime.start.p0(i64 56, ptr %5) #9
  call void @llvm.lifetime.start.p0(i64 8, ptr %6) #9
  store i64 0, ptr %6, align 8
  %8 = call ptr @gmtime_r(ptr noundef %6, ptr noundef %5) #9
  store ptr %8, ptr %4, align 8
  %9 = load ptr, ptr %4, align 8
  %10 = icmp ne ptr %9, null
  br i1 %10, label %11, label %44

11:                                               ; preds = %1
  %12 = load ptr, ptr %4, align 8
  %13 = getelementptr inbounds nuw %struct.tm, ptr %12, i32 0, i32 5
  %14 = load i32, ptr %13, align 4
  %15 = add i32 %14, 1900
  %16 = load ptr, ptr %3, align 8
  %17 = getelementptr inbounds nuw %struct.tm, ptr %16, i32 0, i32 5
  store i32 %15, ptr %17, align 4
  %18 = load ptr, ptr %4, align 8
  %19 = getelementptr inbounds nuw %struct.tm, ptr %18, i32 0, i32 4
  %20 = load i32, ptr %19, align 8
  %21 = add i32 %20, 1
  %22 = load ptr, ptr %3, align 8
  %23 = getelementptr inbounds nuw %struct.tm, ptr %22, i32 0, i32 4
  store i32 %21, ptr %23, align 8
  %24 = load ptr, ptr %4, align 8
  %25 = getelementptr inbounds nuw %struct.tm, ptr %24, i32 0, i32 3
  %26 = load i32, ptr %25, align 4
  %27 = load ptr, ptr %3, align 8
  %28 = getelementptr inbounds nuw %struct.tm, ptr %27, i32 0, i32 3
  store i32 %26, ptr %28, align 4
  %29 = load ptr, ptr %4, align 8
  %30 = getelementptr inbounds nuw %struct.tm, ptr %29, i32 0, i32 2
  %31 = load i32, ptr %30, align 8
  %32 = load ptr, ptr %3, align 8
  %33 = getelementptr inbounds nuw %struct.tm, ptr %32, i32 0, i32 2
  store i32 %31, ptr %33, align 8
  %34 = load ptr, ptr %4, align 8
  %35 = getelementptr inbounds nuw %struct.tm, ptr %34, i32 0, i32 1
  %36 = load i32, ptr %35, align 4
  %37 = load ptr, ptr %3, align 8
  %38 = getelementptr inbounds nuw %struct.tm, ptr %37, i32 0, i32 1
  store i32 %36, ptr %38, align 4
  %39 = load ptr, ptr %4, align 8
  %40 = getelementptr inbounds nuw %struct.tm, ptr %39, i32 0, i32 0
  %41 = load i32, ptr %40, align 8
  %42 = load ptr, ptr %3, align 8
  %43 = getelementptr inbounds nuw %struct.tm, ptr %42, i32 0, i32 0
  store i32 %41, ptr %43, align 8
  store i32 0, ptr %2, align 4
  store i32 1, ptr %7, align 4
  br label %45

44:                                               ; preds = %1
  store i32 -1, ptr %2, align 4
  store i32 1, ptr %7, align 4
  br label %45

45:                                               ; preds = %44, %11
  call void @llvm.lifetime.end.p0(i64 8, ptr %6) #9
  call void @llvm.lifetime.end.p0(i64 56, ptr %5) #9
  call void @llvm.lifetime.end.p0(i64 8, ptr %4) #9
  %46 = load i32, ptr %2, align 4
  ret i32 %46
}