; Function Attrs: nounwind uwtable
define range(i32 -1, 1) i32 @GetEpochTime(ptr noundef writeonly captures(none) %0) local_unnamed_addr #5 {
  %2 = alloca %struct.tm, align 8
  %3 = alloca i64, align 8
  call void @llvm.lifetime.start.p0(i64 56, ptr nonnull %2) #17
  call void @llvm.lifetime.start.p0(i64 8, ptr nonnull %3) #17
  store i64 0, ptr %3, align 8
  %4 = call ptr @gmtime_r(ptr noundef nonnull %3, ptr noundef nonnull %2) #17
  %.not = icmp eq ptr %4, null
  br i1 %.not, label %24, label %5

5:                                                ; preds = %1
  %6 = getelementptr inbounds nuw i8, ptr %4, i64 20
  %7 = load i32, ptr %6, align 4
  %8 = add i32 %7, 1900
  %9 = getelementptr inbounds nuw i8, ptr %0, i64 20
  store i32 %8, ptr %9, align 4
  %10 = getelementptr inbounds nuw i8, ptr %4, i64 16
  %11 = load i32, ptr %10, align 8
  %12 = add i32 %11, 1
  %13 = getelementptr inbounds nuw i8, ptr %0, i64 16
  store i32 %12, ptr %13, align 8
  %14 = getelementptr inbounds nuw i8, ptr %4, i64 12
  %15 = load i32, ptr %14, align 4
  %16 = getelementptr inbounds nuw i8, ptr %0, i64 12
  store i32 %15, ptr %16, align 4
  %17 = getelementptr inbounds nuw i8, ptr %4, i64 8
  %18 = load i32, ptr %17, align 8
  %19 = getelementptr inbounds nuw i8, ptr %0, i64 8
  store i32 %18, ptr %19, align 8
  %20 = getelementptr inbounds nuw i8, ptr %4, i64 4
  %21 = load i32, ptr %20, align 4
  %22 = getelementptr inbounds nuw i8, ptr %0, i64 4
  store i32 %21, ptr %22, align 4
  %23 = load i32, ptr %4, align 8
  store i32 %23, ptr %0, align 8
  br label %24

24:                                               ; preds = %1, %5
  %.0 = phi i32 [ 0, %5 ], [ -1, %1 ]
  call void @llvm.lifetime.end.p0(i64 8, ptr nonnull %3) #17
  call void @llvm.lifetime.end.p0(i64 56, ptr nonnull %2) #17
  ret i32 %.0
}